; ModuleID = 'source-C-CXX/52/1220.c'
source_filename = "source-C-CXX/52/1220.c"
target datalayout = "e-m:e-p270:32:32-p271:32:32-p272:64:64-i64:64-f80:128-n8:16:32:64-S128"
target triple = "x86_64-pc-linux-gnu"

@.str = private unnamed_addr constant [3 x i8] c"%d\00", align 1
@.str.1 = private unnamed_addr constant [4 x i8] c",%d\00", align 1

; Function Attrs: nofree nounwind sspstrong uwtable
define dso_local i32 @main() local_unnamed_addr #0 {
  %1 = alloca i32, align 4
  %2 = alloca [300 x i32], align 16
  %3 = alloca [300 x i32], align 16
  %4 = bitcast i32* %1 to i8*
  call void @llvm.lifetime.start.p0i8(i64 4, i8* nonnull %4) #3
  %5 = call i32 (i8*, ...) @__isoc99_scanf(i8* getelementptr inbounds ([3 x i8], [3 x i8]* @.str, i64 0, i64 0), i32* nonnull %1)
  %6 = bitcast [300 x i32]* %2 to i8*
  call void @llvm.lifetime.start.p0i8(i64 1200, i8* nonnull %6) #3
  %7 = load i32, i32* %1, align 4, !tbaa !5
  %8 = icmp sgt i32 %7, 0
  br i1 %8, label %9, label %20

9:                                                ; preds = %0, %9
  %10 = phi i64 [ %13, %9 ], [ 0, %0 ]
  %11 = getelementptr inbounds [300 x i32], [300 x i32]* %2, i64 0, i64 %10
  %12 = call i32 (i8*, ...) @__isoc99_scanf(i8* getelementptr inbounds ([3 x i8], [3 x i8]* @.str, i64 0, i64 0), i32* nonnull %11)
  %13 = add nuw nsw i64 %10, 1
  %14 = load i32, i32* %1, align 4, !tbaa !5
  %15 = sext i32 %14 to i64
  %16 = icmp slt i64 %13, %15
  br i1 %16, label %9, label %17, !llvm.loop !9

17:                                               ; preds = %9
  %18 = getelementptr inbounds [300 x i32], [300 x i32]* %2, i64 0, i64 0
  %19 = load i32, i32* %18, align 16, !tbaa !5
  br label %20

20:                                               ; preds = %17, %0
  %21 = phi i32 [ %19, %17 ], [ undef, %0 ]
  %22 = bitcast [300 x i32]* %3 to i8*
  call void @llvm.lifetime.start.p0i8(i64 1200, i8* nonnull %22) #3
  %23 = getelementptr inbounds [300 x i32], [300 x i32]* %3, i64 0, i64 0
  store i32 %21, i32* %23, align 16, !tbaa !5
  %24 = call i32 (i8*, ...) @printf(i8* nonnull dereferenceable(1) getelementptr inbounds ([3 x i8], [3 x i8]* @.str, i64 0, i64 0), i32 %21)
  %25 = load i32, i32* %1, align 4, !tbaa !5
  %26 = icmp sgt i32 %25, 1
  br i1 %26, label %27, label %63

27:                                               ; preds = %20, %57
  %28 = phi i32 [ %58, %57 ], [ %25, %20 ]
  %29 = phi i64 [ %60, %57 ], [ 1, %20 ]
  %30 = phi i32 [ %59, %57 ], [ 1, %20 ]
  %31 = getelementptr inbounds [300 x i32], [300 x i32]* %2, i64 0, i64 %29
  %32 = icmp sgt i32 %30, 0
  br i1 %32, label %33, label %57

33:                                               ; preds = %27, %49
  %34 = phi i64 [ %51, %49 ], [ 0, %27 ]
  %35 = phi i32 [ %42, %49 ], [ 0, %27 ]
  %36 = phi i32 [ %50, %49 ], [ %30, %27 ]
  %37 = load i32, i32* %31, align 4, !tbaa !5
  %38 = getelementptr inbounds [300 x i32], [300 x i32]* %3, i64 0, i64 %34
  %39 = load i32, i32* %38, align 4, !tbaa !5
  %40 = icmp eq i32 %37, %39
  br i1 %40, label %54, label %41

41:                                               ; preds = %33
  %42 = add nuw nsw i32 %35, 1
  %43 = icmp eq i32 %42, %36
  br i1 %43, label %44, label %49

44:                                               ; preds = %41
  %45 = sext i32 %36 to i64
  %46 = getelementptr inbounds [300 x i32], [300 x i32]* %3, i64 0, i64 %45
  store i32 %37, i32* %46, align 4, !tbaa !5
  %47 = call i32 (i8*, ...) @printf(i8* nonnull dereferenceable(1) getelementptr inbounds ([4 x i8], [4 x i8]* @.str.1, i64 0, i64 0), i32 %37)
  %48 = add nsw i32 %36, 1
  br label %49

49:                                               ; preds = %41, %44
  %50 = phi i32 [ %48, %44 ], [ %36, %41 ]
  %51 = add nuw nsw i64 %34, 1
  %52 = sext i32 %50 to i64
  %53 = icmp slt i64 %51, %52
  br i1 %53, label %33, label %54, !llvm.loop !11

54:                                               ; preds = %49, %33
  %55 = phi i32 [ %36, %33 ], [ %50, %49 ]
  %56 = load i32, i32* %1, align 4, !tbaa !5
  br label %57

57:                                               ; preds = %54, %27
  %58 = phi i32 [ %28, %27 ], [ %56, %54 ]
  %59 = phi i32 [ %30, %27 ], [ %55, %54 ]
  %60 = add nuw nsw i64 %29, 1
  %61 = sext i32 %58 to i64
  %62 = icmp slt i64 %60, %61
  br i1 %62, label %27, label %63, !llvm.loop !12

63:                                               ; preds = %57, %20
  call void @llvm.lifetime.end.p0i8(i64 1200, i8* nonnull %22) #3
  call void @llvm.lifetime.end.p0i8(i64 1200, i8* nonnull %6) #3
  call void @llvm.lifetime.end.p0i8(i64 4, i8* nonnull %4) #3
  ret i32 0
}

; Function Attrs: argmemonly mustprogress nofree nosync nounwind willreturn
declare void @llvm.lifetime.start.p0i8(i64 immarg, i8* nocapture) #1

; Function Attrs: nofree nounwind
declare noundef i32 @__isoc99_scanf(i8* nocapture noundef readonly, ...) local_unnamed_addr #2

; Function Attrs: nofree nounwind
declare noundef i32 @printf(i8* nocapture noundef readonly, ...) local_unnamed_addr #2

; Function Attrs: argmemonly mustprogress nofree nosync nounwind willreturn
declare void @llvm.lifetime.end.p0i8(i64 immarg, i8* nocapture) #1


!llvm.module.flags = !{!0, !1, !2, !3}
!llvm.ident = !{!4}

!0 = !{i32 1, !"wchar_size", i32 4}
!1 = !{i32 7, !"PIC Level", i32 2}
!2 = !{i32 7, !"PIE Level", i32 2}
!3 = !{i32 7, !"uwtable", i32 1}
!4 = !{!"clang version 13.0.0"}
!5 = !{!6, !6, i64 0}
!6 = !{!"int", !7, i64 0}
!7 = !{!"omnipotent char", !8, i64 0}
!8 = !{!"Simple C/C++ TBAA"}
!9 = distinct !{!9, !10}
!10 = !{!"llvm.loop.mustprogress"}
!11 = distinct !{!11, !10}
!12 = distinct !{!12, !10}
